; Function Attrs: nounwind uwtable
define hidden void @log_message_end(ptr nocapture noundef readonly %0, ...) local_unnamed_addr #0 {
  %2 = alloca [20 x i8], align 16
  %3 = alloca [57 x i8], align 16
  %4 = alloca i64, align 8
  %5 = alloca %struct.timeval, align 8
  %6 = alloca [20 x i8], align 16
  %7 = alloca [1 x %struct.__va_list_tag], align 16
  %8 = alloca [81 x i8], align 16
  %9 = alloca [345 x i8], align 16
  %10 = alloca [257 x i8], align 16
  %.b = load i1, ptr @logging, align 4
  br i1 %.b, label %11, label %45

11:                                               ; preds = %1
  %12 = load ptr, ptr @log_file, align 8
  %13 = icmp eq ptr %12, null
  %.b10 = load i1, ptr @open_count, align 4
  %14 = xor i1 %.b10, true
  %or.cond = select i1 %13, i1 %14, i1 false
  %15 = load i8, ptr @logging_filename, align 16
  %16 = icmp ne i8 %15, 0
  %or.cond4 = select i1 %or.cond, i1 %16, i1 false
  br i1 %or.cond4, label %17, label %21

17:                                               ; preds = %11
  store i1 true, ptr @open_count, align 4
  %18 = tail call noalias ptr @fopen64(ptr noundef nonnull @logging_filename, ptr noundef nonnull @.str)
  store ptr %18, ptr @log_file, align 8
  %.not = icmp eq ptr %18, null
  br i1 %.not, label %.thread, label %19

19:                                               ; preds = %17
  %20 = tail call i32 @setvbuf(ptr noundef nonnull %18, ptr noundef null, i32 noundef 1, i64 noundef 8192) #8
  %.pr.pre = load ptr, ptr @log_file, align 8
  br label %21

.thread:                                          ; preds = %17
  store i1 false, ptr @logging, align 4
  br label %44

21:                                               ; preds = %19, %11
  %.pr = phi ptr [ %.pr.pre, %19 ], [ %12, %11 ]
  %.not11 = icmp eq ptr %.pr, null
  br i1 %.not11, label %44, label %22

22:                                               ; preds = %21
  %23 = tail call i64 @pthread_self() #10
  %24 = load i32, ptr @processPid, align 4
  %25 = trunc i64 %23 to i32
  %26 = call i32 (ptr, i64, ptr, ...) @snprintf(ptr noundef nonnull dereferenceable(1) %9, i64 noundef 345, ptr noundef nonnull @.str.5, ptr noundef nonnull @location_stamp, i32 noundef %24, i32 noundef %25) #8
  call void @llvm.va_start.p0(ptr nonnull %7)
  %27 = call i32 @vsnprintf(ptr noundef nonnull %10, i64 noundef 257, ptr noundef %0, ptr noundef nonnull %7) #8
  %28 = getelementptr inbounds i8, ptr %10, i64 256
  store i8 0, ptr %28, align 16
  call void @llvm.va_end.p0(ptr nonnull %7)
  call void @llvm.lifetime.start.p0(i64 20, ptr nonnull %2)
  call void @llvm.lifetime.start.p0(i64 57, ptr nonnull %3)
  call void @llvm.lifetime.start.p0(i64 8, ptr nonnull %4)
  call void @llvm.lifetime.start.p0(i64 16, ptr nonnull %5)
  call void @llvm.lifetime.start.p0(i64 20, ptr nonnull %6)
  store i64 0, ptr %4, align 8
  %29 = call i32 @gettimeofday(ptr noundef nonnull %5, ptr noundef null) #8
  %30 = getelementptr inbounds i8, ptr %5, i64 8
  %31 = load i64, ptr %30, align 8
  %32 = call i64 @time(ptr noundef nonnull %4) #8
  %33 = icmp eq i64 %32, -1
  br i1 %33, label %34, label %get_time_stamp.exit

34:                                               ; preds = %22
  store i64 0, ptr %4, align 8
  br label %get_time_stamp.exit

get_time_stamp.exit:                              ; preds = %22, %34
  %35 = sdiv i64 %31, 1000
  %36 = trunc i64 %35 to i32
  %37 = call ptr @localtime(ptr noundef nonnull %4) #8
  %38 = call i64 @strftime(ptr noundef nonnull %2, i64 noundef 20, ptr noundef nonnull @.str.9, ptr noundef %37) #8
  %39 = call ptr @localtime(ptr noundef nonnull %4) #8
  %40 = call i64 @strftime(ptr noundef nonnull %3, i64 noundef 57, ptr noundef nonnull @.str.10, ptr noundef %39) #8
  %41 = call i32 (ptr, i64, ptr, ...) @snprintf(ptr noundef nonnull dereferenceable(1) %6, i64 noundef 20, ptr noundef nonnull @.str.11, i32 noundef %36) #8
  %42 = call i32 (ptr, i64, ptr, ...) @snprintf(ptr noundef nonnull dereferenceable(1) %8, i64 noundef 81, ptr noundef nonnull @.str.12, ptr noundef nonnull %2, ptr noundef nonnull %6, ptr noundef nonnull %3) #8
  call void @llvm.lifetime.end.p0(i64 20, ptr nonnull %2)
  call void @llvm.lifetime.end.p0(i64 57, ptr nonnull %3)
  call void @llvm.lifetime.end.p0(i64 8, ptr nonnull %4)
  call void @llvm.lifetime.end.p0(i64 16, ptr nonnull %5)
  call void @llvm.lifetime.end.p0(i64 20, ptr nonnull %6)
  %43 = load ptr, ptr @log_file, align 8
  call void (ptr, ptr, ptr, ptr, ...) @print_message(ptr noundef %43, ptr noundef nonnull @.str.4, ptr noundef nonnull @.str.4, ptr noundef nonnull @.str.13, ptr noundef nonnull %8, ptr noundef nonnull @.str.1, ptr noundef nonnull @.str.2, ptr noundef nonnull @.str.3, ptr noundef nonnull %9, ptr noundef nonnull @.str.4, ptr noundef nonnull %10) #8
  br label %44

44:                                               ; preds = %.thread, %get_time_stamp.exit, %21
  store i8 0, ptr @location_stamp, align 16
  br label %45

45:                                               ; preds = %44, %1
  %46 = call i32 @pthread_mutex_unlock(ptr noundef nonnull @my_mutex) #8
  ret void
}